target datalayout = "e-m:e-p270:32:32-p271:32:32-p272:64:64-i64:64-i128:128-f80:128-n8:16:32:64-S128"
target triple = "x86_64-pc-linux-gnu"

%struct.ident_t = type { i32, i32, i32, i32, ptr }

@1 = private unnamed_addr constant %struct.ident_t { i32 0, i32 514, i32 0, i32 22, ptr @0 }, align 8

; Function Attrs: norecurse nounwind uwtable
define internal void @_ZN5faiss22inner_product_to_L2sqrEPfPKfS2_mm.omp_outlined(ptr noalias noundef %0, ptr noalias noundef %1, ptr noundef nonnull align 8 dereferenceable(8) %2, ptr noundef nonnull align 8 dereferenceable(8) %3, ptr noundef nonnull align 8 dereferenceable(8) %4, ptr noundef nonnull align 8 dereferenceable(8) %5, ptr noundef nonnull align 8 dereferenceable(8) %6) #1 {
  %8 = alloca ptr, align 8
  %9 = alloca ptr, align 8
  %10 = alloca ptr, align 8
  %11 = alloca ptr, align 8
  %12 = alloca ptr, align 8
  %13 = alloca ptr, align 8
  %14 = alloca ptr, align 8
  %15 = alloca i64, align 8
  %16 = alloca i64, align 8
  %17 = alloca i64, align 8
  %18 = alloca i64, align 8
  %19 = alloca i64, align 8
  %20 = alloca i64, align 8
  %21 = alloca i64, align 8
  %22 = alloca i32, align 4
  %23 = alloca i64, align 8
  %24 = alloca ptr, align 8
  %25 = alloca i64, align 8
  store ptr %0, ptr %8, align 8
  store ptr %1, ptr %9, align 8
  store ptr %2, ptr %10, align 8
  store ptr %3, ptr %11, align 8
  store ptr %4, ptr %12, align 8
  store ptr %5, ptr %13, align 8
  store ptr %6, ptr %14, align 8
  %26 = load ptr, ptr %10, align 8
  %27 = load ptr, ptr %11, align 8
  %28 = load ptr, ptr %12, align 8
  %29 = load ptr, ptr %13, align 8
  %30 = load ptr, ptr %14, align 8
  %31 = load i64, ptr %26, align 8
  store i64 %31, ptr %16, align 8
  %32 = load i64, ptr %16, align 8
  %33 = sub i64 %32, 0
  %34 = udiv i64 %33, 1
  %35 = sub i64 %34, 1
  store i64 %35, ptr %17, align 8
  store i64 0, ptr %18, align 8
  %36 = load i64, ptr %16, align 8
  %37 = icmp ult i64 0, %36
  br i1 %37, label %38, label %100

38:                                               ; preds = %7
  store i64 0, ptr %19, align 8
  %39 = load i64, ptr %17, align 8
  store i64 %39, ptr %20, align 8
  store i64 1, ptr %21, align 8
  store i32 0, ptr %22, align 4
  %40 = load ptr, ptr %8, align 8
  %41 = load i32, ptr %40, align 4
  call void @__kmpc_for_static_init_8u(ptr @1, i32 %41, i32 34, ptr %22, ptr %19, ptr %20, ptr %21, i64 1, i64 1)
  %42 = load i64, ptr %20, align 8
  %43 = load i64, ptr %17, align 8
  %44 = icmp ugt i64 %42, %43
  br i1 %44, label %45, label %47

45:                                               ; preds = %38
  %46 = load i64, ptr %17, align 8
  br label %49

47:                                               ; preds = %38
  %48 = load i64, ptr %20, align 8
  br label %49

49:                                               ; preds = %47, %45
  %50 = phi i64 [ %46, %45 ], [ %48, %47 ]
  store i64 %50, ptr %20, align 8
  %51 = load i64, ptr %19, align 8
  store i64 %51, ptr %15, align 8
  br label %52

52:                                               ; preds = %93, %49
  %53 = load i64, ptr %15, align 8
  %54 = load i64, ptr %20, align 8
  %55 = add i64 %54, 1
  %56 = icmp ult i64 %53, %55
  br i1 %56, label %57, label %96

57:                                               ; preds = %52
  %58 = load i64, ptr %15, align 8
  %59 = mul i64 %58, 1
  %60 = add i64 0, %59
  store i64 %60, ptr %23, align 8
  %61 = load ptr, ptr %27, align 8
  %62 = load i64, ptr %23, align 8
  %63 = load i64, ptr %28, align 8
  %64 = mul i64 %62, %63
  %65 = getelementptr inbounds float, ptr %61, i64 %64
  store ptr %65, ptr %24, align 8
  store i64 0, ptr %25, align 8
  br label %66

66:                                               ; preds = %88, %57
  %67 = load i64, ptr %25, align 8
  %68 = load i64, ptr %28, align 8
  %69 = icmp ult i64 %67, %68
  br i1 %69, label %70, label %91

70:                                               ; preds = %66
  %71 = load ptr, ptr %29, align 8
  %72 = load i64, ptr %23, align 8
  %73 = getelementptr inbounds float, ptr %71, i64 %72
  %74 = load float, ptr %73, align 4
  %75 = load ptr, ptr %30, align 8
  %76 = load i64, ptr %25, align 8
  %77 = getelementptr inbounds float, ptr %75, i64 %76
  %78 = load float, ptr %77, align 4
  %79 = fadd float %74, %78
  %80 = load ptr, ptr %24, align 8
  %81 = load i64, ptr %25, align 8
  %82 = getelementptr inbounds float, ptr %80, i64 %81
  %83 = load float, ptr %82, align 4
  %84 = call float @llvm.fmuladd.f32(float -2.000000e+00, float %83, float %79)
  %85 = load ptr, ptr %24, align 8
  %86 = load i64, ptr %25, align 8
  %87 = getelementptr inbounds float, ptr %85, i64 %86
  store float %84, ptr %87, align 4
  br label %88

88:                                               ; preds = %70
  %89 = load i64, ptr %25, align 8
  %90 = add i64 %89, 1
  store i64 %90, ptr %25, align 8
  br label %66, !llvm.loop !105

91:                                               ; preds = %66
  br label %92

92:                                               ; preds = %91
  br label %93

93:                                               ; preds = %92
  %94 = load i64, ptr %15, align 8
  %95 = add i64 %94, 1
  store i64 %95, ptr %15, align 8
  br label %52

96:                                               ; preds = %52
  br label %97

97:                                               ; preds = %96
  %98 = load ptr, ptr %8, align 8
  %99 = load i32, ptr %98, align 4
  call void @__kmpc_for_static_fini(ptr @1, i32 %99)
  br label %100

100:                                              ; preds = %97, %7
  ret void
}