; Function Attrs: norecurse nounwind uwtable
define internal void @_ZN5faiss22inner_product_to_L2sqrEPfPKfS2_mm.omp_outlined(ptr noalias nocapture noundef readonly %0, ptr noalias nocapture readnone %1, ptr nocapture noundef nonnull readonly align 8 dereferenceable(8) %2, ptr nocapture noundef nonnull readonly align 8 dereferenceable(8) %3, ptr nocapture noundef nonnull readonly align 8 dereferenceable(8) %4, ptr nocapture noundef nonnull readonly align 8 dereferenceable(8) %5, ptr nocapture noundef nonnull readonly align 8 dereferenceable(8) %6) #1 {
  %8 = alloca i64, align 8
  %9 = alloca i64, align 8
  %10 = alloca i64, align 8
  %11 = alloca i32, align 4
  %12 = load i64, ptr %2, align 8
  %.not = icmp eq i64 %12, 0
  br i1 %.not, label %44, label %13

13:                                               ; preds = %7
  %14 = add i64 %12, -1
  store i64 0, ptr %8, align 8
  store i64 %14, ptr %9, align 8
  store i64 1, ptr %10, align 8
  store i32 0, ptr %11, align 4
  %15 = load i32, ptr %0, align 4
  call void @__kmpc_for_static_init_8u(ptr nonnull @1, i32 %15, i32 34, ptr nonnull %11, ptr nonnull %8, ptr nonnull %9, ptr nonnull %10, i64 1, i64 1)
  %16 = load i64, ptr %9, align 8
  %17 = call i64 @llvm.umin.i64(i64 %16, i64 %14)
  store i64 %17, ptr %9, align 8
  %18 = load i64, ptr %8, align 8
  %19 = icmp ugt i64 %18, %17
  %20 = load i64, ptr %4, align 8
  %.not29 = icmp eq i64 %20, 0
  %or.cond = select i1 %19, i1 true, i1 %.not29
  br i1 %or.cond, label %._crit_edge28, label %.lr.ph27.split

.lr.ph27.split:                                   ; preds = %13, %._crit_edge
  %21 = phi i64 [ %39, %._crit_edge ], [ %17, %13 ]
  %22 = phi i64 [ %40, %._crit_edge ], [ %20, %13 ]
  %.02325 = phi i64 [ %41, %._crit_edge ], [ %18, %13 ]
  %23 = load ptr, ptr %3, align 8
  %24 = mul i64 %22, %.02325
  %25 = getelementptr inbounds float, ptr %23, i64 %24
  %.not30 = icmp eq i64 %22, 0
  br i1 %.not30, label %._crit_edge, label %.lr.ph

.lr.ph:                                           ; preds = %.lr.ph27.split, %.lr.ph
  %.024 = phi i64 [ %36, %.lr.ph ], [ 0, %.lr.ph27.split ]
  %26 = load ptr, ptr %5, align 8
  %27 = getelementptr inbounds float, ptr %26, i64 %.02325
  %28 = load float, ptr %27, align 4
  %29 = load ptr, ptr %6, align 8
  %30 = getelementptr inbounds float, ptr %29, i64 %.024
  %31 = load float, ptr %30, align 4
  %32 = fadd float %28, %31
  %33 = getelementptr inbounds float, ptr %25, i64 %.024
  %34 = load float, ptr %33, align 4
  %35 = call float @llvm.fmuladd.f32(float %34, float -2.000000e+00, float %32)
  store float %35, ptr %33, align 4
  %36 = add nuw i64 %.024, 1
  %37 = load i64, ptr %4, align 8
  %38 = icmp ult i64 %36, %37
  br i1 %38, label %.lr.ph, label %._crit_edge.loopexit, !llvm.loop !142

._crit_edge.loopexit:                             ; preds = %.lr.ph
  %.pre = load i64, ptr %9, align 8
  br label %._crit_edge

._crit_edge:                                      ; preds = %._crit_edge.loopexit, %.lr.ph27.split
  %39 = phi i64 [ %.pre, %._crit_edge.loopexit ], [ %21, %.lr.ph27.split ]
  %40 = phi i64 [ %37, %._crit_edge.loopexit ], [ 0, %.lr.ph27.split ]
  %41 = add nuw i64 %.02325, 1
  %42 = add i64 %39, 1
  %43 = icmp ult i64 %41, %42
  br i1 %43, label %.lr.ph27.split, label %._crit_edge28, !llvm.loop !143

._crit_edge28:                                    ; preds = %._crit_edge, %13
  call void @__kmpc_for_static_fini(ptr nonnull @1, i32 %15)
  br label %44

44:                                               ; preds = %._crit_edge28, %7
  ret void
}